; Function Attrs: mustprogress uwtable
define hidden noundef ptr @pj_mil_os(ptr noundef %0) local_unnamed_addr #0 {
  %.not = icmp eq ptr %0, null
  br i1 %.not, label %16, label %2

2:                                                ; preds = %1
  %3 = tail call noalias dereferenceable_or_null(32) ptr @calloc(i64 noundef 1, i64 noundef 32) #6
  %4 = icmp eq ptr %3, null
  br i1 %4, label %5, label %_ZL14mod_ster_setupP8PJconsts.exit.i

5:                                                ; preds = %2
  %6 = tail call noundef ptr @_Z21pj_default_destructorP8PJconstsi(ptr noundef nonnull %0, i32 noundef 4096)
  br label %_Z35pj_projection_specific_setup_mil_osP8PJconsts.exit

_ZL14mod_ster_setupP8PJconsts.exit.i:             ; preds = %2
  %7 = getelementptr inbounds nuw i8, ptr %0, i64 88
  store ptr %3, ptr %7, align 8, !tbaa !3
  %8 = getelementptr inbounds nuw i8, ptr %3, i64 24
  store i32 2, ptr %8, align 8, !tbaa !36
  %9 = getelementptr inbounds nuw i8, ptr %0, i64 440
  store double 0x3FD657184AE74487, ptr %9, align 8, !tbaa !38
  %10 = getelementptr inbounds nuw i8, ptr %0, i64 448
  store double 0x3FD41B2F769CF0E0, ptr %10, align 8, !tbaa !39
  store ptr @_ZZ35pj_projection_specific_setup_mil_osP8PJconstsE2AB, ptr %3, align 8, !tbaa !40
  %11 = getelementptr inbounds nuw i8, ptr %0, i64 216
  store double 0.000000e+00, ptr %11, align 8, !tbaa !41
  %12 = getelementptr inbounds nuw i8, ptr %3, i64 16
  store double 0x3FD3C6EF372FE94F, ptr %12, align 8, !tbaa !42
  %13 = getelementptr inbounds nuw i8, ptr %3, i64 8
  store double 0x3FEE6F0E134454FF, ptr %13, align 8, !tbaa !43
  %14 = getelementptr inbounds nuw i8, ptr %0, i64 112
  store ptr @_ZL18mod_ster_e_inverse5PJ_XYP8PJconsts, ptr %14, align 8, !tbaa !44
  %15 = getelementptr inbounds nuw i8, ptr %0, i64 104
  store ptr @_ZL18mod_ster_e_forward5PJ_LPP8PJconsts, ptr %15, align 8, !tbaa !45
  br label %_Z35pj_projection_specific_setup_mil_osP8PJconsts.exit

16:                                               ; preds = %1
  %17 = tail call noundef ptr @_Z6pj_newv()
  %18 = icmp eq ptr %17, null
  br i1 %18, label %_Z35pj_projection_specific_setup_mil_osP8PJconsts.exit, label %19

19:                                               ; preds = %16
  %20 = getelementptr inbounds nuw i8, ptr %17, i64 8
  store ptr @.str, ptr %20, align 8, !tbaa !46
  %21 = getelementptr inbounds nuw i8, ptr %17, i64 16
  store ptr @_ZL10des_mil_os, ptr %21, align 8, !tbaa !47
  %22 = getelementptr inbounds nuw i8, ptr %17, i64 360
  store i32 1, ptr %22, align 8, !tbaa !48
  %23 = getelementptr inbounds nuw i8, ptr %17, i64 380
  store i32 4, ptr %23, align 4, !tbaa !49
  %24 = getelementptr inbounds nuw i8, ptr %17, i64 384
  store i32 1, ptr %24, align 8, !tbaa !50
  br label %_Z35pj_projection_specific_setup_mil_osP8PJconsts.exit

_Z35pj_projection_specific_setup_mil_osP8PJconsts.exit: ; preds = %_ZL14mod_ster_setupP8PJconsts.exit.i, %5, %16, %19
  %.0 = phi ptr [ %17, %19 ], [ null, %16 ], [ %6, %5 ], [ %0, %_ZL14mod_ster_setupP8PJconsts.exit.i ]
  ret ptr %.0
}